target datalayout = "e-m:e-p270:32:32-p271:32:32-p272:64:64-i64:64-i128:128-f80:128-n8:16:32:64-S128"
target triple = "x86_64-pc-linux-gnu"

%struct._lv_roller_t = type { %struct._lv_obj_t, i32, i32, i32, i32, i8 }
%struct._lv_obj_t = type { ptr, ptr, ptr, ptr, ptr, %struct.lv_area_t, i32, i16, i16 }
%struct.lv_area_t = type { i32, i32, i32, i32 }
%union.lv_style_value_t = type { ptr }

; Function Attrs: nounwind uwtable
define internal ptr @get_label(ptr noundef %0) #0 {
  %2 = alloca ptr, align 8
  store ptr %0, ptr %2, align 8, !tbaa !8
  %3 = load ptr, ptr %2, align 8, !tbaa !8
  %4 = call ptr @lv_obj_get_child(ptr noundef %3, i32 noundef 0)
  ret ptr %4
}

; Function Attrs: inlinehint nounwind uwtable
define internal i32 @lv_obj_get_style_text_line_space(ptr noundef %0, i32 noundef %1) #3 {
  %3 = alloca ptr, align 8
  %4 = alloca i32, align 4
  %5 = alloca %union.lv_style_value_t, align 8
  store ptr %0, ptr %3, align 8, !tbaa !8
  store i32 %1, ptr %4, align 4, !tbaa !24
  call void @llvm.lifetime.start.p0(i64 8, ptr %5) #6
  %6 = load ptr, ptr %3, align 8, !tbaa !8
  %7 = load i32, ptr %4, align 4, !tbaa !24
  %8 = call ptr @lv_obj_get_style_prop(ptr noundef %6, i32 noundef %7, i8 noundef zeroext 92)
  %9 = getelementptr inbounds nuw %union.lv_style_value_t, ptr %5, i32 0, i32 0
  store ptr %8, ptr %9, align 8
  %10 = load i32, ptr %5, align 8, !tbaa !41
  call void @llvm.lifetime.end.p0(i64 8, ptr %5) #6
  ret i32 %10
}

; Function Attrs: inlinehint nounwind uwtable
define internal ptr @lv_obj_get_style_text_font(ptr noundef %0, i32 noundef %1) #3 {
  %3 = alloca ptr, align 8
  %4 = alloca i32, align 4
  %5 = alloca %union.lv_style_value_t, align 8
  store ptr %0, ptr %3, align 8, !tbaa !8
  store i32 %1, ptr %4, align 4, !tbaa !24
  call void @llvm.lifetime.start.p0(i64 8, ptr %5) #6
  %6 = load ptr, ptr %3, align 8, !tbaa !8
  %7 = load i32, ptr %4, align 4, !tbaa !24
  %8 = call ptr @lv_obj_get_style_prop(ptr noundef %6, i32 noundef %7, i8 noundef zeroext 90)
  %9 = getelementptr inbounds nuw %union.lv_style_value_t, ptr %5, i32 0, i32 0
  store ptr %8, ptr %9, align 8
  %10 = load ptr, ptr %5, align 8, !tbaa !41
  call void @llvm.lifetime.end.p0(i64 8, ptr %5) #6
  ret ptr %10
}

; Function Attrs: nounwind uwtable
define internal void @inf_normalize(ptr noundef %0) #0 {
  %2 = alloca ptr, align 8
  %3 = alloca ptr, align 8
  %4 = alloca i32, align 4
  %5 = alloca ptr, align 8
  %6 = alloca i32, align 4
  %7 = alloca i32, align 4
  %8 = alloca i32, align 4
  %9 = alloca ptr, align 8
  %10 = alloca i32, align 4
  %11 = alloca i32, align 4
  %12 = alloca i32, align 4
  store ptr %0, ptr %2, align 8, !tbaa !8
  call void @llvm.lifetime.start.p0(i64 8, ptr %3) #6
  %13 = load ptr, ptr %2, align 8, !tbaa !8
  store ptr %13, ptr %3, align 8, !tbaa !10
  %14 = load ptr, ptr %3, align 8, !tbaa !10
  %15 = getelementptr inbounds nuw %struct._lv_roller_t, ptr %14, i32 0, i32 5
  %16 = load i8, ptr %15, align 8
  %17 = and i8 %16, 3
  %18 = zext i8 %17 to i32
  %19 = icmp eq i32 %18, 1
  br i1 %19, label %20, label %89

20:                                               ; preds = %1
  call void @llvm.lifetime.start.p0(i64 4, ptr %4) #6
  %21 = load ptr, ptr %3, align 8, !tbaa !10
  %22 = getelementptr inbounds nuw %struct._lv_roller_t, ptr %21, i32 0, i32 1
  %23 = load i32, ptr %22, align 8, !tbaa !12
  %24 = load ptr, ptr %3, align 8, !tbaa !10
  %25 = getelementptr inbounds nuw %struct._lv_roller_t, ptr %24, i32 0, i32 4
  %26 = load i32, ptr %25, align 4, !tbaa !46
  %27 = udiv i32 %23, %26
  store i32 %27, ptr %4, align 4, !tbaa !24
  %28 = load ptr, ptr %3, align 8, !tbaa !10
  %29 = getelementptr inbounds nuw %struct._lv_roller_t, ptr %28, i32 0, i32 2
  %30 = load i32, ptr %29, align 4, !tbaa !20
  %31 = load i32, ptr %4, align 4, !tbaa !24
  %32 = urem i32 %30, %31
  %33 = load ptr, ptr %3, align 8, !tbaa !10
  %34 = getelementptr inbounds nuw %struct._lv_roller_t, ptr %33, i32 0, i32 2
  store i32 %32, ptr %34, align 4, !tbaa !20
  %35 = load ptr, ptr %3, align 8, !tbaa !10
  %36 = getelementptr inbounds nuw %struct._lv_roller_t, ptr %35, i32 0, i32 4
  %37 = load i32, ptr %36, align 4, !tbaa !46
  %38 = udiv i32 %37, 2
  %39 = load i32, ptr %4, align 4, !tbaa !24
  %40 = mul i32 %38, %39
  %41 = load ptr, ptr %3, align 8, !tbaa !10
  %42 = getelementptr inbounds nuw %struct._lv_roller_t, ptr %41, i32 0, i32 2
  %43 = load i32, ptr %42, align 4, !tbaa !20
  %44 = add i32 %43, %40
  store i32 %44, ptr %42, align 4, !tbaa !20
  %45 = load ptr, ptr %3, align 8, !tbaa !10
  %46 = getelementptr inbounds nuw %struct._lv_roller_t, ptr %45, i32 0, i32 2
  %47 = load i32, ptr %46, align 4, !tbaa !20
  %48 = load i32, ptr %4, align 4, !tbaa !24
  %49 = urem i32 %47, %48
  %50 = load ptr, ptr %3, align 8, !tbaa !10
  %51 = getelementptr inbounds nuw %struct._lv_roller_t, ptr %50, i32 0, i32 3
  store i32 %49, ptr %51, align 8, !tbaa !21
  %52 = load ptr, ptr %3, align 8, !tbaa !10
  %53 = getelementptr inbounds nuw %struct._lv_roller_t, ptr %52, i32 0, i32 4
  %54 = load i32, ptr %53, align 4, !tbaa !46
  %55 = udiv i32 %54, 2
  %56 = load i32, ptr %4, align 4, !tbaa !24
  %57 = mul i32 %55, %56
  %58 = load ptr, ptr %3, align 8, !tbaa !10
  %59 = getelementptr inbounds nuw %struct._lv_roller_t, ptr %58, i32 0, i32 3
  %60 = load i32, ptr %59, align 8, !tbaa !21
  %61 = add i32 %60, %57
  store i32 %61, ptr %59, align 8, !tbaa !21
  call void @llvm.lifetime.start.p0(i64 8, ptr %5) #6
  %62 = load ptr, ptr %2, align 8, !tbaa !8
  %63 = call ptr @lv_obj_get_style_text_font(ptr noundef %62, i32 noundef 0)
  store ptr %63, ptr %5, align 8, !tbaa !44
  call void @llvm.lifetime.start.p0(i64 4, ptr %6) #6
  %64 = load ptr, ptr %2, align 8, !tbaa !8
  %65 = call i32 @lv_obj_get_style_text_line_space(ptr noundef %64, i32 noundef 0)
  store i32 %65, ptr %6, align 4, !tbaa !24
  call void @llvm.lifetime.start.p0(i64 4, ptr %7) #6
  %66 = load ptr, ptr %5, align 8, !tbaa !44
  %67 = call i32 @lv_font_get_line_height(ptr noundef %66)
  store i32 %67, ptr %7, align 4, !tbaa !24
  call void @llvm.lifetime.start.p0(i64 4, ptr %8) #6
  %68 = load ptr, ptr %2, align 8, !tbaa !8
  %69 = call i32 @lv_obj_get_content_height(ptr noundef %68)
  store i32 %69, ptr %8, align 4, !tbaa !24
  call void @llvm.lifetime.start.p0(i64 8, ptr %9) #6
  %70 = load ptr, ptr %2, align 8, !tbaa !8
  %71 = call ptr @get_label(ptr noundef %70)
  store ptr %71, ptr %9, align 8, !tbaa !8
  call void @llvm.lifetime.start.p0(i64 4, ptr %10) #6
  %72 = load ptr, ptr %3, align 8, !tbaa !10
  %73 = getelementptr inbounds nuw %struct._lv_roller_t, ptr %72, i32 0, i32 2
  %74 = load i32, ptr %73, align 4, !tbaa !20
  %75 = load i32, ptr %7, align 4, !tbaa !24
  %76 = load i32, ptr %6, align 4, !tbaa !24
  %77 = add nsw i32 %75, %76
  %78 = mul i32 %74, %77
  store i32 %78, ptr %10, align 4, !tbaa !24
  call void @llvm.lifetime.start.p0(i64 4, ptr %11) #6
  %79 = load i32, ptr %8, align 4, !tbaa !24
  %80 = sdiv i32 %79, 2
  %81 = load i32, ptr %7, align 4, !tbaa !24
  %82 = sdiv i32 %81, 2
  %83 = sub nsw i32 %80, %82
  store i32 %83, ptr %11, align 4, !tbaa !24
  call void @llvm.lifetime.start.p0(i64 4, ptr %12) #6
  %84 = load i32, ptr %11, align 4, !tbaa !24
  %85 = load i32, ptr %10, align 4, !tbaa !24
  %86 = sub nsw i32 %84, %85
  store i32 %86, ptr %12, align 4, !tbaa !24
  %87 = load ptr, ptr %9, align 8, !tbaa !8
  %88 = load i32, ptr %12, align 4, !tbaa !24
  call void @lv_obj_set_y(ptr noundef %87, i32 noundef %88)
  call void @llvm.lifetime.end.p0(i64 4, ptr %12) #6
  call void @llvm.lifetime.end.p0(i64 4, ptr %11) #6
  call void @llvm.lifetime.end.p0(i64 4, ptr %10) #6
  call void @llvm.lifetime.end.p0(i64 8, ptr %9) #6
  call void @llvm.lifetime.end.p0(i64 4, ptr %8) #6
  call void @llvm.lifetime.end.p0(i64 4, ptr %7) #6
  call void @llvm.lifetime.end.p0(i64 4, ptr %6) #6
  call void @llvm.lifetime.end.p0(i64 8, ptr %5) #6
  call void @llvm.lifetime.end.p0(i64 4, ptr %4) #6
  br label %89

89:                                               ; preds = %20, %1
  call void @llvm.lifetime.end.p0(i64 8, ptr %3) #6
  ret void
}