; Function Attrs: nounwind uwtable
define internal fastcc void @inf_normalize(ptr noundef %0) unnamed_addr #0 {
  %2 = getelementptr inbounds nuw i8, ptr %0, i64 80
  %3 = load i8, ptr %2, align 8
  %4 = and i8 %3, 3
  %5 = icmp eq i8 %4, 1
  br i1 %5, label %6, label %33

6:                                                ; preds = %1
  %7 = getelementptr inbounds nuw i8, ptr %0, i64 64
  %8 = load i32, ptr %7, align 8, !tbaa !3
  %9 = getelementptr inbounds nuw i8, ptr %0, i64 76
  %10 = load i32, ptr %9, align 4, !tbaa !42
  %11 = udiv i32 %8, %10
  %12 = getelementptr inbounds nuw i8, ptr %0, i64 68
  %13 = load i32, ptr %12, align 4, !tbaa !16
  %14 = urem i32 %13, %11
  %15 = lshr i32 %10, 1
  %16 = mul i32 %15, %11
  %17 = add i32 %14, %16
  store i32 %17, ptr %12, align 4, !tbaa !16
  %18 = urem i32 %17, %11
  %19 = getelementptr inbounds nuw i8, ptr %0, i64 72
  %20 = add i32 %18, %16
  store i32 %20, ptr %19, align 8, !tbaa !17
  %21 = tail call ptr @lv_obj_get_style_prop(ptr noundef nonnull %0, i32 noundef 0, i8 noundef zeroext 90) #6
  %22 = tail call ptr @lv_obj_get_style_prop(ptr noundef nonnull %0, i32 noundef 0, i8 noundef zeroext 92) #6
  %23 = ptrtoint ptr %22 to i64
  %.sroa.0.0.extract.trunc.i = trunc i64 %23 to i32
  %24 = tail call i32 @lv_font_get_line_height(ptr noundef %21) #6
  %25 = tail call i32 @lv_obj_get_content_height(ptr noundef nonnull %0) #6
  %26 = tail call ptr @lv_obj_get_child(ptr noundef nonnull %0, i32 noundef 0) #6
  %27 = load i32, ptr %12, align 4, !tbaa !16
  %28 = add nsw i32 %24, %.sroa.0.0.extract.trunc.i
  %29 = mul i32 %27, %28
  %30 = sdiv i32 %25, 2
  %.neg = sdiv i32 %24, -2
  %31 = add nsw i32 %30, %.neg
  %32 = sub i32 %31, %29
  tail call void @lv_obj_set_y(ptr noundef %26, i32 noundef %32) #6
  br label %33

33:                                               ; preds = %6, %1
  ret void
}